target datalayout = "e-m:e-p270:32:32-p271:32:32-p272:64:64-i64:64-i128:128-f80:128-n8:16:32:64-S128"
target triple = "x86_64-pc-linux-gnu"

; Function Attrs: mustprogress uwtable
define noundef zeroext i1 @_ZN3net12CryptoFramer11WritePadTagEPNS_14QuicDataWriterEmPj(ptr noundef %0, i64 noundef %1, ptr noundef %2) #0 align 2 {
  %4 = alloca i1, align 1
  %5 = alloca ptr, align 8
  %6 = alloca i64, align 8
  %7 = alloca ptr, align 8
  store ptr %0, ptr %5, align 8, !tbaa !102
  store i64 %1, ptr %6, align 8, !tbaa !57
  store ptr %2, ptr %7, align 8, !tbaa !104
  %8 = load ptr, ptr %5, align 8, !tbaa !102
  %9 = call noundef zeroext i1 @_ZN3net14QuicDataWriter11WriteUInt32Ej(ptr noundef nonnull align 8 dereferenceable(24) %8, i32 noundef 4473168)
  br i1 %9, label %11, label %10

10:                                               ; preds = %3
  store i1 false, ptr %4, align 1
  br label %24

11:                                               ; preds = %3
  %12 = load i64, ptr %6, align 8, !tbaa !57
  %13 = load ptr, ptr %7, align 8, !tbaa !104
  %14 = load i32, ptr %13, align 4, !tbaa !80
  %15 = zext i32 %14 to i64
  %16 = add i64 %15, %12
  %17 = trunc i64 %16 to i32
  store i32 %17, ptr %13, align 4, !tbaa !80
  %18 = load ptr, ptr %5, align 8, !tbaa !102
  %19 = load ptr, ptr %7, align 8, !tbaa !104
  %20 = load i32, ptr %19, align 4, !tbaa !80
  %21 = call noundef zeroext i1 @_ZN3net14QuicDataWriter11WriteUInt32Ej(ptr noundef nonnull align 8 dereferenceable(24) %18, i32 noundef %20)
  br i1 %21, label %23, label %22

22:                                               ; preds = %11
  store i1 false, ptr %4, align 1
  br label %24

23:                                               ; preds = %11
  store i1 true, ptr %4, align 1
  br label %24

24:                                               ; preds = %23, %22, %10
  %25 = load i1, ptr %4, align 1
  ret i1 %25
}