; Function Attrs: mustprogress uwtable
define noundef zeroext i1 @_ZN3net12CryptoFramer11WritePadTagEPNS_14QuicDataWriterEmPj(ptr noundef nonnull %0, i64 noundef %1, ptr noundef captures(none) %2) local_unnamed_addr #0 align 2 {
  %4 = tail call noundef zeroext i1 @_ZN3net14QuicDataWriter11WriteUInt32Ej(ptr noundef nonnull align 8 dereferenceable(24) %0, i32 noundef 4473168)
  br i1 %4, label %5, label %10

5:                                                ; preds = %3
  %6 = load i32, ptr %2, align 4, !tbaa !65
  %7 = trunc i64 %1 to i32
  %8 = add i32 %6, %7
  store i32 %8, ptr %2, align 4, !tbaa !65
  %9 = tail call noundef zeroext i1 @_ZN3net14QuicDataWriter11WriteUInt32Ej(ptr noundef nonnull align 8 dereferenceable(24) %0, i32 noundef %8)
  br label %10

10:                                               ; preds = %5, %3
  %.0 = phi i1 [ false, %3 ], [ %9, %5 ]
  ret i1 %.0
}